; Function Attrs: mustprogress nofree norecurse nosync nounwind sspstrong willreturn memory(read, argmem: readwrite, inaccessiblemem: none) uwtable
define internal range(i32 0, 32) i32 @qio_channel_websock_source_prepare(ptr noundef readonly captures(none) %source, ptr noundef writeonly captures(none) initializes((0, 4)) %timeout) #2 {
entry:
  store i32 -1, ptr %timeout, align 4
  %wioc.i = getelementptr inbounds nuw i8, ptr %source, i64 96
  %0 = load ptr, ptr %wioc.i, align 8
  %offset.i = getelementptr inbounds nuw i8, ptr %0, i64 200
  %1 = load i64, ptr %offset.i, align 8
  %tobool.not.i = icmp ne i64 %1, 0
  %spec.select.i = zext i1 %tobool.not.i to i32
  %offset2.i = getelementptr inbounds nuw i8, ptr %0, i64 160
  %2 = load i64, ptr %offset2.i, align 8
  %cmp.i = icmp ult i64 %2, 8192
  %or4.i = or disjoint i32 %spec.select.i, 4
  %cond.1.i = select i1 %cmp.i, i32 %or4.i, i32 %spec.select.i
  %io_eof.i = getelementptr inbounds nuw i8, ptr %0, i64 256
  %3 = load i32, ptr %io_eof.i, align 8
  %tobool7.not.i = icmp eq i32 %3, 0
  %or9.i = or disjoint i32 %cond.1.i, 16
  %cond.2.i = select i1 %tobool7.not.i, i32 %cond.1.i, i32 %or9.i
  %io_err.i = getelementptr inbounds nuw i8, ptr %0, i64 248
  %4 = load ptr, ptr %io_err.i, align 8
  %tobool12.not.i = icmp eq ptr %4, null
  %or14.i = or disjoint i32 %cond.2.i, 8
  %cond.3.i = select i1 %tobool12.not.i, i32 %cond.2.i, i32 %or14.i
  %condition.i = getelementptr inbounds nuw i8, ptr %source, i64 104
  %5 = load i32, ptr %condition.i, align 8
  %and.i = and i32 %cond.3.i, %5
  ret i32 %and.i
}